; Function Attrs: mustprogress nofree nounwind willreturn memory(write, argmem: readwrite) uwtable
define noundef i32 @_ZNK10open_spiel11negotiation15NegotiationGame21NumDistinctUtterancesEv(ptr nocapture noundef nonnull readonly align 8 dereferenceable(336) %0) local_unnamed_addr #5 align 2 {
  %2 = getelementptr inbounds nuw i8, ptr %0, i64 288
  %3 = load i32, ptr %2, align 8
  %4 = getelementptr inbounds nuw i8, ptr %0, i64 292
  %5 = load i32, ptr %4, align 4
  %6 = sitofp i32 %3 to double
  %7 = sitofp i32 %5 to double
  %8 = tail call noundef double @pow(double noundef %6, double noundef %7) #32
  %9 = fptosi double %8 to i32
  ret i32 %9
}